target datalayout = "e-m:e-p270:32:32-p271:32:32-p272:64:64-i64:64-i128:128-f80:128-n8:16:32:64-S128"
target triple = "x86_64-unknown-linux-gnu"

%"struct.icu_75::number::impl::RangeMacroProps" = type { [8 x i8], %"class.icu_75::number::UnlocalizedNumberFormatter", %"class.icu_75::number::UnlocalizedNumberFormatter", i8, i32, i32, [4 x i8], %"class.icu_75::Locale" }
%"class.icu_75::number::UnlocalizedNumberFormatter" = type <{ %"class.icu_75::number::NumberFormatterSettings", [8 x i8] }>
%"class.icu_75::number::NumberFormatterSettings" = type { %"struct.icu_75::number::impl::MacroProps" }
%"struct.icu_75::number::impl::MacroProps" = type { [4 x i8], %"class.icu_75::number::Notation", %"class.icu_75::MeasureUnit", %"class.icu_75::MeasureUnit", %"class.icu_75::number::Precision", i32, %"class.icu_75::number::impl::Grouper", %"class.icu_75::number::impl::Padder", %"class.icu_75::number::IntegerWidth", %"class.icu_75::number::impl::SymbolsWrapper", i32, i32, i8, i32, %"class.icu_75::number::Scale", %"class.icu_75::number::impl::StringProp", %"class.icu_75::number::impl::StringProp", ptr, ptr, i32, [4 x i8], %"class.icu_75::Locale" }
%"class.icu_75::number::Notation" = type { i32, %"union.icu_75::number::Notation::NotationUnion" }
%"union.icu_75::number::Notation::NotationUnion" = type { %"struct.icu_75::number::Notation::NotationUnion::ScientificSettings" }
%"struct.icu_75::number::Notation::NotationUnion::ScientificSettings" = type { i8, i8, i16, i32 }
%"class.icu_75::MeasureUnit" = type <{ %"class.icu_75::UObject", ptr, i16, i8, [5 x i8] }>
%"class.icu_75::UObject" = type { ptr }
%"class.icu_75::number::Precision" = type <{ i32, [4 x i8], %"union.icu_75::number::Precision::PrecisionUnion", i32, [4 x i8] }>
%"union.icu_75::number::Precision::PrecisionUnion" = type { %"struct.icu_75::number::Precision::PrecisionUnion::IncrementSettings" }
%"struct.icu_75::number::Precision::PrecisionUnion::IncrementSettings" = type { i64, i16, i16 }
%"class.icu_75::number::impl::Grouper" = type { i16, i16, i16, i32 }
%"class.icu_75::number::impl::Padder" = type { i32, %union.anon }
%union.anon = type { %struct.anon }
%struct.anon = type { i32, i32 }
%"class.icu_75::number::IntegerWidth" = type <{ %union.anon.0, i8, [3 x i8] }>
%union.anon.0 = type { i32, [4 x i8] }
%"class.icu_75::number::impl::SymbolsWrapper" = type { i32, %union.anon.2 }
%union.anon.2 = type { ptr }
%"class.icu_75::number::Scale" = type <{ i32, [4 x i8], ptr, i32, [4 x i8] }>
%"class.icu_75::number::impl::StringProp" = type { ptr, i16, i32 }
%"class.icu_75::Locale" = type <{ %"class.icu_75::UObject", [12 x i8], [6 x i8], [4 x i8], [2 x i8], i32, [4 x i8], ptr, [157 x i8], [3 x i8], ptr, i8, [7 x i8] }>

; Function Attrs: mustprogress uwtable
define void @_ZN6icu_756number4impl17touchRangeLocalesERNS1_15RangeMacroPropsE(ptr noundef nonnull align 8 dereferenceable(1208) %macros) #1 {
entry:
  %macros.addr = alloca ptr, align 8
  store ptr %macros, ptr %macros.addr, align 8
  %0 = load ptr, ptr %macros.addr, align 8
  %locale = getelementptr inbounds %"struct.icu_75::number::impl::RangeMacroProps", ptr %0, i32 0, i32 7
  %1 = load ptr, ptr %macros.addr, align 8
  %formatter1 = getelementptr inbounds %"struct.icu_75::number::impl::RangeMacroProps", ptr %1, i32 0, i32 1
  %fMacros = getelementptr inbounds %"class.icu_75::number::NumberFormatterSettings", ptr %formatter1, i32 0, i32 0
  %locale1 = getelementptr inbounds %"struct.icu_75::number::impl::MacroProps", ptr %fMacros, i32 0, i32 21
  %call = call noundef nonnull align 8 dereferenceable(217) ptr @_ZN6icu_756LocaleaSERKS0_(ptr noundef nonnull align 8 dereferenceable(217) %locale1, ptr noundef nonnull align 8 dereferenceable(217) %locale)
  %2 = load ptr, ptr %macros.addr, align 8
  %locale2 = getelementptr inbounds %"struct.icu_75::number::impl::RangeMacroProps", ptr %2, i32 0, i32 7
  %3 = load ptr, ptr %macros.addr, align 8
  %formatter2 = getelementptr inbounds %"struct.icu_75::number::impl::RangeMacroProps", ptr %3, i32 0, i32 2
  %fMacros3 = getelementptr inbounds %"class.icu_75::number::NumberFormatterSettings", ptr %formatter2, i32 0, i32 0
  %locale4 = getelementptr inbounds %"struct.icu_75::number::impl::MacroProps", ptr %fMacros3, i32 0, i32 21
  %call5 = call noundef nonnull align 8 dereferenceable(217) ptr @_ZN6icu_756LocaleaSERKS0_(ptr noundef nonnull align 8 dereferenceable(217) %locale4, ptr noundef nonnull align 8 dereferenceable(217) %locale2)
  ret void
}