; Function Attrs: mustprogress uwtable
define void @_ZN6icu_756number4impl17touchRangeLocalesERNS1_15RangeMacroPropsE(ptr noundef nonnull align 8 dereferenceable(1208) %macros) local_unnamed_addr #1 {
entry:
  %locale = getelementptr inbounds i8, ptr %macros, i64 984
  %locale1 = getelementptr inbounds i8, ptr %macros, i64 256
  %call = tail call noundef nonnull align 8 dereferenceable(217) ptr @_ZN6icu_756LocaleaSERKS0_(ptr noundef nonnull align 8 dereferenceable(217) %locale1, ptr noundef nonnull align 8 dereferenceable(217) %locale)
  %locale4 = getelementptr inbounds i8, ptr %macros, i64 736
  %call5 = tail call noundef nonnull align 8 dereferenceable(217) ptr @_ZN6icu_756LocaleaSERKS0_(ptr noundef nonnull align 8 dereferenceable(217) %locale4, ptr noundef nonnull align 8 dereferenceable(217) %locale)
  ret void
}